target datalayout = "e-m:e-p270:32:32-p271:32:32-p272:64:64-i64:64-i128:128-f80:128-n8:16:32:64-S128"
target triple = "x86_64-pc-linux-gnu"

%struct.DdNode = type { i32, i32, ptr, %union.anon, i64 }
%union.anon = type { %struct.DdChildren }
%struct.DdChildren = type { ptr, ptr }
%struct.cuddPathPair = type { i32, i32 }

@zero = internal global ptr null, align 8

; Function Attrs: nounwind uwtable
define internal i64 @getLargest(ptr noundef %0, ptr noundef %1) #0 {
  %3 = alloca %struct.cuddPathPair, align 4
  %4 = alloca ptr, align 8
  %5 = alloca ptr, align 8
  %6 = alloca ptr, align 8
  %7 = alloca %struct.cuddPathPair, align 4
  %8 = alloca %struct.cuddPathPair, align 4
  %9 = alloca ptr, align 8
  %10 = alloca ptr, align 8
  %11 = alloca ptr, align 8
  %12 = alloca i32, align 4
  %13 = alloca %struct.cuddPathPair, align 4
  %14 = alloca %struct.cuddPathPair, align 4
  %15 = alloca i32, align 4
  store ptr %0, ptr %4, align 8, !tbaa !8
  store ptr %1, ptr %5, align 8, !tbaa !37
  call void @llvm.lifetime.start.p0(i64 8, ptr %6) #6
  call void @llvm.lifetime.start.p0(i64 8, ptr %7) #6
  call void @llvm.lifetime.start.p0(i64 8, ptr %8) #6
  call void @llvm.lifetime.start.p0(i64 8, ptr %9) #6
  call void @llvm.lifetime.start.p0(i64 8, ptr %10) #6
  call void @llvm.lifetime.start.p0(i64 8, ptr %11) #6
  %16 = load ptr, ptr %4, align 8, !tbaa !8
  %17 = ptrtoint ptr %16 to i64
  %18 = and i64 %17, -2
  %19 = inttoptr i64 %18 to ptr
  store ptr %19, ptr %9, align 8, !tbaa !8
  %20 = load ptr, ptr %5, align 8, !tbaa !37
  %21 = load ptr, ptr %9, align 8, !tbaa !8
  %22 = call i32 @st__lookup(ptr noundef %20, ptr noundef %21, ptr noundef %6)
  %23 = icmp ne i32 %22, 0
  br i1 %23, label %24, label %49

24:                                               ; preds = %2
  %25 = load ptr, ptr %4, align 8, !tbaa !8
  %26 = ptrtoint ptr %25 to i64
  %27 = and i64 %26, 1
  %28 = trunc i64 %27 to i32
  %29 = icmp ne i32 %28, 0
  br i1 %29, label %30, label %39

30:                                               ; preds = %24
  %31 = load ptr, ptr %6, align 8, !tbaa !39
  %32 = getelementptr inbounds nuw %struct.cuddPathPair, ptr %31, i32 0, i32 1
  %33 = load i32, ptr %32, align 4, !tbaa !41
  %34 = getelementptr inbounds nuw %struct.cuddPathPair, ptr %3, i32 0, i32 0
  store i32 %33, ptr %34, align 4, !tbaa !43
  %35 = load ptr, ptr %6, align 8, !tbaa !39
  %36 = getelementptr inbounds nuw %struct.cuddPathPair, ptr %35, i32 0, i32 0
  %37 = load i32, ptr %36, align 4, !tbaa !43
  %38 = getelementptr inbounds nuw %struct.cuddPathPair, ptr %3, i32 0, i32 1
  store i32 %37, ptr %38, align 4, !tbaa !41
  br label %48

39:                                               ; preds = %24
  %40 = load ptr, ptr %6, align 8, !tbaa !39
  %41 = getelementptr inbounds nuw %struct.cuddPathPair, ptr %40, i32 0, i32 0
  %42 = load i32, ptr %41, align 4, !tbaa !43
  %43 = getelementptr inbounds nuw %struct.cuddPathPair, ptr %3, i32 0, i32 0
  store i32 %42, ptr %43, align 4, !tbaa !43
  %44 = load ptr, ptr %6, align 8, !tbaa !39
  %45 = getelementptr inbounds nuw %struct.cuddPathPair, ptr %44, i32 0, i32 1
  %46 = load i32, ptr %45, align 4, !tbaa !41
  %47 = getelementptr inbounds nuw %struct.cuddPathPair, ptr %3, i32 0, i32 1
  store i32 %46, ptr %47, align 4, !tbaa !41
  br label %48

48:                                               ; preds = %39, %30
  store i32 1, ptr %12, align 4
  br label %166

49:                                               ; preds = %2
  %50 = load ptr, ptr %9, align 8, !tbaa !8
  %51 = getelementptr inbounds nuw %struct.DdNode, ptr %50, i32 0, i32 0
  %52 = load i32, ptr %51, align 8, !tbaa !14
  %53 = icmp eq i32 %52, 2147483647
  br i1 %53, label %54, label %65

54:                                               ; preds = %49
  %55 = load ptr, ptr %9, align 8, !tbaa !8
  %56 = load ptr, ptr @zero, align 8, !tbaa !8
  %57 = icmp ne ptr %55, %56
  br i1 %57, label %58, label %61

58:                                               ; preds = %54
  %59 = getelementptr inbounds nuw %struct.cuddPathPair, ptr %3, i32 0, i32 0
  store i32 0, ptr %59, align 4, !tbaa !43
  %60 = getelementptr inbounds nuw %struct.cuddPathPair, ptr %3, i32 0, i32 1
  store i32 1000000, ptr %60, align 4, !tbaa !41
  br label %64

61:                                               ; preds = %54
  %62 = getelementptr inbounds nuw %struct.cuddPathPair, ptr %3, i32 0, i32 0
  store i32 1000000, ptr %62, align 4, !tbaa !43
  %63 = getelementptr inbounds nuw %struct.cuddPathPair, ptr %3, i32 0, i32 1
  store i32 0, ptr %63, align 4, !tbaa !41
  br label %64

64:                                               ; preds = %61, %58
  br label %110

65:                                               ; preds = %49
  %66 = load ptr, ptr %9, align 8, !tbaa !8
  %67 = getelementptr inbounds nuw %struct.DdNode, ptr %66, i32 0, i32 3
  %68 = getelementptr inbounds nuw %struct.DdChildren, ptr %67, i32 0, i32 0
  %69 = load ptr, ptr %68, align 8, !tbaa !17
  store ptr %69, ptr %10, align 8, !tbaa !8
  %70 = load ptr, ptr %9, align 8, !tbaa !8
  %71 = getelementptr inbounds nuw %struct.DdNode, ptr %70, i32 0, i32 3
  %72 = getelementptr inbounds nuw %struct.DdChildren, ptr %71, i32 0, i32 1
  %73 = load ptr, ptr %72, align 8, !tbaa !17
  store ptr %73, ptr %11, align 8, !tbaa !8
  call void @llvm.lifetime.start.p0(i64 8, ptr %13) #6
  %74 = load ptr, ptr %10, align 8, !tbaa !8
  %75 = load ptr, ptr %5, align 8, !tbaa !37
  %76 = call i64 @getLargest(ptr noundef %74, ptr noundef %75)
  store i64 %76, ptr %13, align 4
  call void @llvm.memcpy.p0.p0.i64(ptr align 4 %7, ptr align 4 %13, i64 8, i1 false), !tbaa.struct !45
  call void @llvm.lifetime.end.p0(i64 8, ptr %13) #6
  call void @llvm.lifetime.start.p0(i64 8, ptr %14) #6
  %77 = load ptr, ptr %11, align 8, !tbaa !8
  %78 = load ptr, ptr %5, align 8, !tbaa !37
  %79 = call i64 @getLargest(ptr noundef %77, ptr noundef %78)
  store i64 %79, ptr %14, align 4
  call void @llvm.memcpy.p0.p0.i64(ptr align 4 %8, ptr align 4 %14, i64 8, i1 false), !tbaa.struct !45
  call void @llvm.lifetime.end.p0(i64 8, ptr %14) #6
  %80 = getelementptr inbounds nuw %struct.cuddPathPair, ptr %8, i32 0, i32 0
  %81 = load i32, ptr %80, align 4, !tbaa !43
  %82 = getelementptr inbounds nuw %struct.cuddPathPair, ptr %7, i32 0, i32 0
  %83 = load i32, ptr %82, align 4, !tbaa !43
  %84 = icmp slt i32 %81, %83
  br i1 %84, label %85, label %88

85:                                               ; preds = %65
  %86 = getelementptr inbounds nuw %struct.cuddPathPair, ptr %8, i32 0, i32 0
  %87 = load i32, ptr %86, align 4, !tbaa !43
  br label %91

88:                                               ; preds = %65
  %89 = getelementptr inbounds nuw %struct.cuddPathPair, ptr %7, i32 0, i32 0
  %90 = load i32, ptr %89, align 4, !tbaa !43
  br label %91

91:                                               ; preds = %88, %85
  %92 = phi i32 [ %87, %85 ], [ %90, %88 ]
  %93 = add nsw i32 %92, 1
  %94 = getelementptr inbounds nuw %struct.cuddPathPair, ptr %3, i32 0, i32 0
  store i32 %93, ptr %94, align 4, !tbaa !43
  %95 = getelementptr inbounds nuw %struct.cuddPathPair, ptr %8, i32 0, i32 1
  %96 = load i32, ptr %95, align 4, !tbaa !41
  %97 = getelementptr inbounds nuw %struct.cuddPathPair, ptr %7, i32 0, i32 1
  %98 = load i32, ptr %97, align 4, !tbaa !41
  %99 = icmp slt i32 %96, %98
  br i1 %99, label %100, label %103

100:                                              ; preds = %91
  %101 = getelementptr inbounds nuw %struct.cuddPathPair, ptr %8, i32 0, i32 1
  %102 = load i32, ptr %101, align 4, !tbaa !41
  br label %106

103:                                              ; preds = %91
  %104 = getelementptr inbounds nuw %struct.cuddPathPair, ptr %7, i32 0, i32 1
  %105 = load i32, ptr %104, align 4, !tbaa !41
  br label %106

106:                                              ; preds = %103, %100
  %107 = phi i32 [ %102, %100 ], [ %105, %103 ]
  %108 = add nsw i32 %107, 1
  %109 = getelementptr inbounds nuw %struct.cuddPathPair, ptr %3, i32 0, i32 1
  store i32 %108, ptr %109, align 4, !tbaa !41
  br label %110

110:                                              ; preds = %106, %64
  %111 = call noalias ptr @malloc(i64 noundef 8) #7
  store ptr %111, ptr %6, align 8, !tbaa !39
  %112 = load ptr, ptr %6, align 8, !tbaa !39
  %113 = icmp eq ptr %112, null
  br i1 %113, label %114, label %129

114:                                              ; preds = %110
  %115 = load ptr, ptr %4, align 8, !tbaa !8
  %116 = ptrtoint ptr %115 to i64
  %117 = and i64 %116, 1
  %118 = trunc i64 %117 to i32
  %119 = icmp ne i32 %118, 0
  br i1 %119, label %120, label %128

120:                                              ; preds = %114
  call void @llvm.lifetime.start.p0(i64 4, ptr %15) #6
  %121 = getelementptr inbounds nuw %struct.cuddPathPair, ptr %3, i32 0, i32 0
  %122 = load i32, ptr %121, align 4, !tbaa !43
  store i32 %122, ptr %15, align 4, !tbaa !12
  %123 = getelementptr inbounds nuw %struct.cuddPathPair, ptr %3, i32 0, i32 1
  %124 = load i32, ptr %123, align 4, !tbaa !41
  %125 = getelementptr inbounds nuw %struct.cuddPathPair, ptr %3, i32 0, i32 0
  store i32 %124, ptr %125, align 4, !tbaa !43
  %126 = load i32, ptr %15, align 4, !tbaa !12
  %127 = getelementptr inbounds nuw %struct.cuddPathPair, ptr %3, i32 0, i32 1
  store i32 %126, ptr %127, align 4, !tbaa !41
  call void @llvm.lifetime.end.p0(i64 4, ptr %15) #6
  br label %128

128:                                              ; preds = %120, %114
  store i32 1, ptr %12, align 4
  br label %166

129:                                              ; preds = %110
  %130 = getelementptr inbounds nuw %struct.cuddPathPair, ptr %3, i32 0, i32 0
  %131 = load i32, ptr %130, align 4, !tbaa !43
  %132 = load ptr, ptr %6, align 8, !tbaa !39
  %133 = getelementptr inbounds nuw %struct.cuddPathPair, ptr %132, i32 0, i32 0
  store i32 %131, ptr %133, align 4, !tbaa !43
  %134 = getelementptr inbounds nuw %struct.cuddPathPair, ptr %3, i32 0, i32 1
  %135 = load i32, ptr %134, align 4, !tbaa !41
  %136 = load ptr, ptr %6, align 8, !tbaa !39
  %137 = getelementptr inbounds nuw %struct.cuddPathPair, ptr %136, i32 0, i32 1
  store i32 %135, ptr %137, align 4, !tbaa !41
  %138 = load ptr, ptr %5, align 8, !tbaa !37
  %139 = load ptr, ptr %9, align 8, !tbaa !8
  %140 = load ptr, ptr %6, align 8, !tbaa !39
  %141 = call i32 @st__insert(ptr noundef %138, ptr noundef %139, ptr noundef %140)
  %142 = load ptr, ptr %4, align 8, !tbaa !8
  %143 = ptrtoint ptr %142 to i64
  %144 = and i64 %143, 1
  %145 = trunc i64 %144 to i32
  %146 = icmp ne i32 %145, 0
  br i1 %146, label %147, label %156

147:                                              ; preds = %129
  %148 = load ptr, ptr %6, align 8, !tbaa !39
  %149 = getelementptr inbounds nuw %struct.cuddPathPair, ptr %148, i32 0, i32 1
  %150 = load i32, ptr %149, align 4, !tbaa !41
  %151 = getelementptr inbounds nuw %struct.cuddPathPair, ptr %3, i32 0, i32 0
  store i32 %150, ptr %151, align 4, !tbaa !43
  %152 = load ptr, ptr %6, align 8, !tbaa !39
  %153 = getelementptr inbounds nuw %struct.cuddPathPair, ptr %152, i32 0, i32 0
  %154 = load i32, ptr %153, align 4, !tbaa !43
  %155 = getelementptr inbounds nuw %struct.cuddPathPair, ptr %3, i32 0, i32 1
  store i32 %154, ptr %155, align 4, !tbaa !41
  br label %165

156:                                              ; preds = %129
  %157 = load ptr, ptr %6, align 8, !tbaa !39
  %158 = getelementptr inbounds nuw %struct.cuddPathPair, ptr %157, i32 0, i32 0
  %159 = load i32, ptr %158, align 4, !tbaa !43
  %160 = getelementptr inbounds nuw %struct.cuddPathPair, ptr %3, i32 0, i32 0
  store i32 %159, ptr %160, align 4, !tbaa !43
  %161 = load ptr, ptr %6, align 8, !tbaa !39
  %162 = getelementptr inbounds nuw %struct.cuddPathPair, ptr %161, i32 0, i32 1
  %163 = load i32, ptr %162, align 4, !tbaa !41
  %164 = getelementptr inbounds nuw %struct.cuddPathPair, ptr %3, i32 0, i32 1
  store i32 %163, ptr %164, align 4, !tbaa !41
  br label %165

165:                                              ; preds = %156, %147
  store i32 1, ptr %12, align 4
  br label %166

166:                                              ; preds = %165, %128, %48
  call void @llvm.lifetime.end.p0(i64 8, ptr %11) #6
  call void @llvm.lifetime.end.p0(i64 8, ptr %10) #6
  call void @llvm.lifetime.end.p0(i64 8, ptr %9) #6
  call void @llvm.lifetime.end.p0(i64 8, ptr %8) #6
  call void @llvm.lifetime.end.p0(i64 8, ptr %7) #6
  call void @llvm.lifetime.end.p0(i64 8, ptr %6) #6
  %167 = load i64, ptr %3, align 4
  ret i64 %167
}