; Function Attrs: nounwind uwtable
define internal fastcc i64 @getLargest(ptr noundef %0, ptr noundef %1) unnamed_addr #2 {
  %3 = alloca ptr, align 8
  call void @llvm.lifetime.start.p0(i64 8, ptr nonnull %3) #10
  %4 = ptrtoint ptr %0 to i64
  %5 = and i64 %4, -2
  %6 = inttoptr i64 %5 to ptr
  %7 = call i32 @st__lookup(ptr noundef %1, ptr noundef %6, ptr noundef nonnull %3) #10
  %.not = icmp eq i32 %7, 0
  br i1 %.not, label %12, label %8

8:                                                ; preds = %2
  %9 = and i64 %4, 1
  %.not31 = icmp eq i64 %9, 0
  %10 = load ptr, ptr %3, align 8
  %11 = getelementptr inbounds nuw i8, ptr %10, i64 4
  %.sroa.024.0.in = select i1 %.not31, ptr %10, ptr %11
  %.sroa.11.0.in = select i1 %.not31, ptr %11, ptr %10
  %.sroa.11.0 = load i32, ptr %.sroa.11.0.in, align 4, !tbaa !11
  %.sroa.024.0 = load i32, ptr %.sroa.024.0.in, align 4, !tbaa !11
  br label %39

12:                                               ; preds = %2
  %13 = load i32, ptr %6, align 8, !tbaa !3
  %14 = icmp eq i32 %13, 2147483647
  br i1 %14, label %15, label %17

15:                                               ; preds = %12
  %16 = load ptr, ptr @zero, align 8, !tbaa !29
  %.not28 = icmp eq ptr %16, %6
  %. = select i1 %.not28, i32 1000000, i32 0
  %.32 = select i1 %.not28, i32 0, i32 1000000
  br label %28

17:                                               ; preds = %12
  %18 = getelementptr inbounds nuw i8, ptr %6, i64 16
  %19 = load ptr, ptr %18, align 8, !tbaa !12
  %20 = getelementptr inbounds nuw i8, ptr %6, i64 24
  %21 = load ptr, ptr %20, align 8, !tbaa !12
  %22 = call fastcc i64 @getLargest(ptr noundef %19, ptr noundef %1)
  %.sroa.012.0.extract.trunc = trunc i64 %22 to i32
  %.sroa.514.0.extract.shift = lshr i64 %22, 32
  %.sroa.514.0.extract.trunc = trunc nuw i64 %.sroa.514.0.extract.shift to i32
  %23 = call fastcc i64 @getLargest(ptr noundef %21, ptr noundef %1)
  %.sroa.09.0.extract.trunc = trunc i64 %23 to i32
  %.sroa.5.0.extract.shift = lshr i64 %23, 32
  %.sroa.5.0.extract.trunc = trunc nuw i64 %.sroa.5.0.extract.shift to i32
  %24 = call i32 @llvm.smin.i32(i32 %.sroa.09.0.extract.trunc, i32 %.sroa.012.0.extract.trunc)
  %25 = add nsw i32 %24, 1
  %26 = call i32 @llvm.smin.i32(i32 %.sroa.5.0.extract.trunc, i32 %.sroa.514.0.extract.trunc)
  %27 = add nsw i32 %26, 1
  br label %28

28:                                               ; preds = %15, %17
  %.sroa.024.2 = phi i32 [ %25, %17 ], [ %., %15 ]
  %.sroa.11.2 = phi i32 [ %27, %17 ], [ %.32, %15 ]
  %29 = call noalias dereferenceable_or_null(8) ptr @malloc(i64 noundef 8) #11
  store ptr %29, ptr %3, align 8, !tbaa !35
  %30 = icmp eq ptr %29, null
  br i1 %30, label %31, label %33

31:                                               ; preds = %28
  %32 = and i64 %4, 1
  %.not30 = icmp eq i64 %32, 0
  %spec.select = select i1 %.not30, i32 %.sroa.024.2, i32 %.sroa.11.2
  %spec.select33 = select i1 %.not30, i32 %.sroa.11.2, i32 %.sroa.024.2
  br label %39

33:                                               ; preds = %28
  store i32 %.sroa.024.2, ptr %29, align 4, !tbaa !39
  %34 = getelementptr inbounds nuw i8, ptr %29, i64 4
  store i32 %.sroa.11.2, ptr %34, align 4, !tbaa !37
  %35 = call i32 @st__insert(ptr noundef %1, ptr noundef nonnull %6, ptr noundef nonnull %29) #10
  %36 = and i64 %4, 1
  %.not29 = icmp eq i64 %36, 0
  %37 = load ptr, ptr %3, align 8
  %38 = getelementptr inbounds nuw i8, ptr %37, i64 4
  %.sroa.024.4.in = select i1 %.not29, ptr %37, ptr %38
  %.sroa.11.4.in = select i1 %.not29, ptr %38, ptr %37
  %.sroa.11.4 = load i32, ptr %.sroa.11.4.in, align 4, !tbaa !11
  %.sroa.024.4 = load i32, ptr %.sroa.024.4.in, align 4, !tbaa !11
  br label %39

39:                                               ; preds = %33, %31, %8
  %.sroa.024.1 = phi i32 [ %.sroa.024.0, %8 ], [ %spec.select, %31 ], [ %.sroa.024.4, %33 ]
  %.sroa.11.1 = phi i32 [ %.sroa.11.0, %8 ], [ %spec.select33, %31 ], [ %.sroa.11.4, %33 ]
  call void @llvm.lifetime.end.p0(i64 8, ptr nonnull %3) #10
  %.sroa.11.0.insert.ext = zext i32 %.sroa.11.1 to i64
  %.sroa.11.0.insert.shift = shl nuw i64 %.sroa.11.0.insert.ext, 32
  %.sroa.024.0.insert.ext = zext i32 %.sroa.024.1 to i64
  %.sroa.024.0.insert.insert = or disjoint i64 %.sroa.11.0.insert.shift, %.sroa.024.0.insert.ext
  ret i64 %.sroa.024.0.insert.insert
}